target datalayout = "e-m:e-p270:32:32-p271:32:32-p272:64:64-i64:64-i128:128-f80:128-n8:16:32:64-S128"
target triple = "x86_64-pc-linux-gnu"

%struct._lv_obj_t = type { ptr, ptr, ptr, ptr, ptr, %struct.lv_area_t, i32, i16, i16 }
%struct.lv_area_t = type { i32, i32, i32, i32 }
%struct.lv_event_list_t = type { %struct._lv_array_t, i8 }
%struct._lv_array_t = type { ptr, i32, i32, i32, i8 }
%struct._lv_obj_spec_attr_t = type { ptr, ptr, %struct.lv_event_list_t, %struct.lv_point_t, i32, i32, i16, i16 }
%struct.lv_point_t = type { i32, i32 }

; Function Attrs: nounwind uwtable
define i32 @lv_obj_get_child_count_by_type(ptr noundef %0, ptr noundef %1) #0 {
  %3 = alloca i32, align 4
  %4 = alloca ptr, align 8
  %5 = alloca ptr, align 8
  %6 = alloca i32, align 4
  %7 = alloca i32, align 4
  store ptr %0, ptr %4, align 8, !tbaa !3
  store ptr %1, ptr %5, align 8, !tbaa !82
  br label %8

8:                                                ; preds = %2
  %9 = load ptr, ptr %4, align 8, !tbaa !3
  %10 = icmp ne ptr %9, null
  br i1 %10, label %15, label %11

11:                                               ; preds = %8
  br label %12

12:                                               ; preds = %11
  br label %13

13:                                               ; preds = %12
  br label %14

14:                                               ; preds = %13, %14
  br label %14

15:                                               ; preds = %8
  br label %16

16:                                               ; preds = %15
  %17 = load ptr, ptr %4, align 8, !tbaa !3
  %18 = getelementptr inbounds nuw %struct._lv_obj_t, ptr %17, i32 0, i32 2
  %19 = load ptr, ptr %18, align 8, !tbaa !43
  %20 = icmp eq ptr %19, null
  br i1 %20, label %21, label %22

21:                                               ; preds = %16
  store i32 0, ptr %3, align 4
  br label %55

22:                                               ; preds = %16
  call void @llvm.lifetime.start.p0(i64 4, ptr %6) #3
  call void @llvm.lifetime.start.p0(i64 4, ptr %7) #3
  store i32 0, ptr %7, align 4, !tbaa !37
  store i32 0, ptr %6, align 4, !tbaa !37
  br label %23

23:                                               ; preds = %50, %22
  %24 = load i32, ptr %6, align 4, !tbaa !37
  %25 = load ptr, ptr %4, align 8, !tbaa !3
  %26 = getelementptr inbounds nuw %struct._lv_obj_t, ptr %25, i32 0, i32 2
  %27 = load ptr, ptr %26, align 8, !tbaa !43
  %28 = getelementptr inbounds nuw %struct._lv_obj_spec_attr_t, ptr %27, i32 0, i32 6
  %29 = load i16, ptr %28, align 8, !tbaa !64
  %30 = zext i16 %29 to i32
  %31 = icmp ult i32 %24, %30
  br i1 %31, label %32, label %53

32:                                               ; preds = %23
  %33 = load ptr, ptr %4, align 8, !tbaa !3
  %34 = getelementptr inbounds nuw %struct._lv_obj_t, ptr %33, i32 0, i32 2
  %35 = load ptr, ptr %34, align 8, !tbaa !43
  %36 = getelementptr inbounds nuw %struct._lv_obj_spec_attr_t, ptr %35, i32 0, i32 0
  %37 = load ptr, ptr %36, align 8, !tbaa !66
  %38 = load i32, ptr %6, align 4, !tbaa !37
  %39 = zext i32 %38 to i64
  %40 = getelementptr inbounds nuw ptr, ptr %37, i64 %39
  %41 = load ptr, ptr %40, align 8, !tbaa !3
  %42 = getelementptr inbounds nuw %struct._lv_obj_t, ptr %41, i32 0, i32 0
  %43 = load ptr, ptr %42, align 8, !tbaa !83
  %44 = load ptr, ptr %5, align 8, !tbaa !82
  %45 = icmp eq ptr %43, %44
  br i1 %45, label %46, label %49

46:                                               ; preds = %32
  %47 = load i32, ptr %7, align 4, !tbaa !37
  %48 = add i32 %47, 1
  store i32 %48, ptr %7, align 4, !tbaa !37
  br label %49

49:                                               ; preds = %46, %32
  br label %50

50:                                               ; preds = %49
  %51 = load i32, ptr %6, align 4, !tbaa !37
  %52 = add i32 %51, 1
  store i32 %52, ptr %6, align 4, !tbaa !37
  br label %23, !llvm.loop !87

53:                                               ; preds = %23
  %54 = load i32, ptr %7, align 4, !tbaa !37
  store i32 %54, ptr %3, align 4
  call void @llvm.lifetime.end.p0(i64 4, ptr %7) #3
  call void @llvm.lifetime.end.p0(i64 4, ptr %6) #3
  br label %55

55:                                               ; preds = %53, %21
  %56 = load i32, ptr %3, align 4
  ret i32 %56
}