; Function Attrs: nofree norecurse nosync nounwind memory(read, inaccessiblemem: none) uwtable
define i32 @lv_obj_get_child_count_by_type(ptr noundef readonly captures(address_is_null) %0, ptr noundef readnone captures(address) %1) local_unnamed_addr #4 {
  %.not = icmp eq ptr %0, null
  br i1 %.not, label %.preheader, label %3

.preheader:                                       ; preds = %2, %.preheader
  br label %.preheader

3:                                                ; preds = %2
  %4 = getelementptr inbounds nuw i8, ptr %0, i64 16
  %5 = load ptr, ptr %4, align 8, !tbaa !37
  %6 = icmp eq ptr %5, null
  br i1 %6, label %.loopexit, label %.preheader13

.preheader13:                                     ; preds = %3
  %7 = getelementptr inbounds nuw i8, ptr %5, i64 64
  %8 = load i16, ptr %7, align 8, !tbaa !38
  %.not16 = icmp eq i16 %8, 0
  br i1 %.not16, label %.loopexit, label %.lr.ph

.lr.ph:                                           ; preds = %.preheader13
  %9 = load ptr, ptr %5, align 8, !tbaa !42
  %wide.trip.count = zext i16 %8 to i64
  br label %10

10:                                               ; preds = %.lr.ph, %10
  %indvars.iv = phi i64 [ 0, %.lr.ph ], [ %indvars.iv.next, %10 ]
  %.015 = phi i32 [ 0, %.lr.ph ], [ %spec.select, %10 ]
  %11 = getelementptr inbounds nuw ptr, ptr %9, i64 %indvars.iv
  %12 = load ptr, ptr %11, align 8, !tbaa !33
  %13 = load ptr, ptr %12, align 8, !tbaa !68
  %14 = icmp eq ptr %13, %1
  %15 = zext i1 %14 to i32
  %spec.select = add i32 %.015, %15
  %indvars.iv.next = add nuw nsw i64 %indvars.iv, 1
  %exitcond.not = icmp eq i64 %indvars.iv.next, %wide.trip.count
  br i1 %exitcond.not, label %.loopexit, label %10, !llvm.loop !72

.loopexit:                                        ; preds = %10, %.preheader13, %3
  %.011 = phi i32 [ 0, %3 ], [ 0, %.preheader13 ], [ %spec.select, %10 ]
  ret i32 %.011
}